; Function Attrs: nounwind uwtable
define dso_local noundef ptr @list_make3_impl(i32 noundef %0, ptr %1, ptr %2, ptr %3) local_unnamed_addr #0 {
  %5 = tail call ptr @palloc(i64 noundef 64) #9
  store i32 %0, ptr %5, align 8
  %6 = getelementptr inbounds nuw i8, ptr %5, i64 4
  store i32 3, ptr %6, align 4
  %7 = getelementptr inbounds nuw i8, ptr %5, i64 8
  store i32 5, ptr %7, align 8
  %8 = getelementptr inbounds nuw i8, ptr %5, i64 24
  %9 = getelementptr inbounds nuw i8, ptr %5, i64 16
  store ptr %8, ptr %9, align 8
  store ptr %1, ptr %8, align 8
  %10 = getelementptr inbounds nuw i8, ptr %5, i64 32
  store ptr %2, ptr %10, align 8
  %11 = getelementptr inbounds nuw i8, ptr %5, i64 40
  store ptr %3, ptr %11, align 8
  ret ptr %5
}